target datalayout = "e-m:e-p270:32:32-p271:32:32-p272:64:64-i64:64-i128:128-f80:128-n8:16:32:64-S128"
target triple = "x86_64-pc-linux-gnu"

%"struct.vcpkg::StringLiteral" = type { %"struct.vcpkg::ZStringView" }
%"struct.vcpkg::ZStringView" = type { %"struct.vcpkg::StringView" }
%"struct.vcpkg::StringView" = type { ptr, i64 }
%"class.std::__cxx11::basic_string" = type { %"struct.std::__cxx11::basic_string<char>::_Alloc_hider", i64, %union.anon.2 }
%"struct.std::__cxx11::basic_string<char>::_Alloc_hider" = type { ptr }
%union.anon.2 = type { i64, [8 x i8] }
%"struct.vcpkg::LineInfo" = type { i32, ptr }
%"struct.vcpkg::Json::JsonStyle" = type { i32, i64 }
%"struct.vcpkg::Json::(anonymous namespace)::Stringifier" = type { %"struct.vcpkg::Json::JsonStyle", ptr }

@.str.14 = private unnamed_addr constant [3 x i8] c": \00", align 1
@.str.67 = private unnamed_addr constant [120 x i8] c"generated/home/dtcxzyw/WorkSpace/Projects/compilers/llvm-opt-benchmark/bench/vcpkg/vcpkg-tool/include/vcpkg/base/json.h\00", align 1

; Function Attrs: mustprogress nounwind uwtable
define linkonce_odr dso_local noundef i64 @_ZNK5vcpkg4Json9JsonStyle6spacesEv(ptr noundef nonnull align 8 dereferenceable(16) %0) #0 comdat align 2 personality ptr @__gxx_personality_v0 {
  %2 = alloca ptr, align 8
  %3 = alloca %"struct.vcpkg::LineInfo", align 8
  store ptr %0, ptr %2, align 8
  %4 = load ptr, ptr %2, align 8
  %5 = getelementptr inbounds %"struct.vcpkg::LineInfo", ptr %3, i32 0, i32 0
  store i32 50, ptr %5, align 8
  %6 = getelementptr inbounds %"struct.vcpkg::LineInfo", ptr %3, i32 0, i32 1
  store ptr @.str.67, ptr %6, align 8
  %7 = getelementptr inbounds %"struct.vcpkg::Json::JsonStyle", ptr %4, i32 0, i32 1
  %8 = load i64, ptr %7, align 8
  %9 = icmp ne i64 %8, -1
  invoke void @_ZN5vcpkg6Checks10check_exitERKNS_8LineInfoEb(ptr noundef nonnull align 8 dereferenceable(16) %3, i1 noundef zeroext %9)
          to label %10 unwind label %13

10:                                               ; preds = %1
  %11 = getelementptr inbounds %"struct.vcpkg::Json::JsonStyle", ptr %4, i32 0, i32 1
  %12 = load i64, ptr %11, align 8
  ret i64 %12

13:                                               ; preds = %1
  %14 = landingpad { ptr, i32 }
          catch ptr null
  %15 = extractvalue { ptr, i32 } %14, 0
  call void @__clang_call_terminate(ptr %15) #19
  unreachable
}

; Function Attrs: mustprogress nounwind uwtable
define linkonce_odr dso_local noundef zeroext i1 @_ZNK5vcpkg4Json9JsonStyle8use_tabsEv(ptr noundef nonnull align 8 dereferenceable(16) %0) #0 comdat align 2 {
  %2 = alloca ptr, align 8
  store ptr %0, ptr %2, align 8
  %3 = load ptr, ptr %2, align 8
  %4 = getelementptr inbounds %"struct.vcpkg::Json::JsonStyle", ptr %3, i32 0, i32 1
  %5 = load i64, ptr %4, align 8
  %6 = icmp eq i64 %5, -1
  ret i1 %6
}

; Function Attrs: mustprogress uwtable
define internal void @_ZN5vcpkg4Json12_GLOBAL__N_111Stringifier23stringify_object_memberENS_10StringViewERKNS0_5ArrayEm(ptr noundef nonnull align 8 dereferenceable(24) %0, ptr %1, i64 %2, ptr noundef nonnull align 8 dereferenceable(24) %3, i64 noundef %4) #4 align 2 {
  %6 = alloca %"struct.vcpkg::StringView", align 8
  %7 = alloca ptr, align 8
  %8 = alloca ptr, align 8
  %9 = alloca i64, align 8
  %10 = alloca %"struct.vcpkg::StringView", align 8
  %11 = getelementptr inbounds { ptr, i64 }, ptr %6, i32 0, i32 0
  store ptr %1, ptr %11, align 8
  %12 = getelementptr inbounds { ptr, i64 }, ptr %6, i32 0, i32 1
  store i64 %2, ptr %12, align 8
  store ptr %0, ptr %7, align 8
  store ptr %3, ptr %8, align 8
  store i64 %4, ptr %9, align 8
  %13 = load ptr, ptr %7, align 8
  call void @llvm.memcpy.p0.p0.i64(ptr align 8 %10, ptr align 8 %6, i64 16, i1 false)
  %14 = getelementptr inbounds { ptr, i64 }, ptr %10, i32 0, i32 0
  %15 = load ptr, ptr %14, align 8
  %16 = getelementptr inbounds { ptr, i64 }, ptr %10, i32 0, i32 1
  %17 = load i64, ptr %16, align 8
  call void @_ZN5vcpkg4Json12_GLOBAL__N_111Stringifier25append_quoted_json_stringENS_10StringViewE(ptr noundef nonnull align 8 dereferenceable(24) %13, ptr %15, i64 %17)
  %18 = getelementptr inbounds %"struct.vcpkg::Json::(anonymous namespace)::Stringifier", ptr %13, i32 0, i32 1
  %19 = load ptr, ptr %18, align 8
  %20 = call noundef nonnull align 8 dereferenceable(32) ptr @_ZNSt7__cxx1112basic_stringIcSt11char_traitsIcESaIcEE6appendEPKc(ptr noundef nonnull align 8 dereferenceable(32) %19, ptr noundef @.str.14)
  %21 = load ptr, ptr %8, align 8
  %22 = load i64, ptr %9, align 8
  call void @_ZN5vcpkg4Json12_GLOBAL__N_111Stringifier15stringify_arrayERKNS0_5ArrayEm(ptr noundef nonnull align 8 dereferenceable(24) %13, ptr noundef nonnull align 8 dereferenceable(24) %21, i64 noundef %22)
  ret void
}

; Function Attrs: mustprogress uwtable
define internal void @_ZNK5vcpkg4Json12_GLOBAL__N_111Stringifier13append_indentEm(ptr noundef nonnull align 8 dereferenceable(24) %0, i64 noundef %1) #4 align 2 {
  %3 = alloca ptr, align 8
  %4 = alloca i64, align 8
  store ptr %0, ptr %3, align 8
  store i64 %1, ptr %4, align 8
  %5 = load ptr, ptr %3, align 8
  %6 = getelementptr inbounds %"struct.vcpkg::Json::(anonymous namespace)::Stringifier", ptr %5, i32 0, i32 0
  %7 = call noundef zeroext i1 @_ZNK5vcpkg4Json9JsonStyle8use_tabsEv(ptr noundef nonnull align 8 dereferenceable(16) %6) #9
  br i1 %7, label %8, label %13

8:                                                ; preds = %2
  %9 = getelementptr inbounds %"struct.vcpkg::Json::(anonymous namespace)::Stringifier", ptr %5, i32 0, i32 1
  %10 = load ptr, ptr %9, align 8
  %11 = load i64, ptr %4, align 8
  %12 = call noundef nonnull align 8 dereferenceable(32) ptr @_ZNSt7__cxx1112basic_stringIcSt11char_traitsIcESaIcEE6appendEmc(ptr noundef nonnull align 8 dereferenceable(32) %10, i64 noundef %11, i8 noundef signext 9)
  br label %21

13:                                               ; preds = %2
  %14 = getelementptr inbounds %"struct.vcpkg::Json::(anonymous namespace)::Stringifier", ptr %5, i32 0, i32 1
  %15 = load ptr, ptr %14, align 8
  %16 = load i64, ptr %4, align 8
  %17 = getelementptr inbounds %"struct.vcpkg::Json::(anonymous namespace)::Stringifier", ptr %5, i32 0, i32 0
  %18 = call noundef i64 @_ZNK5vcpkg4Json9JsonStyle6spacesEv(ptr noundef nonnull align 8 dereferenceable(16) %17) #9
  %19 = mul i64 %16, %18
  %20 = call noundef nonnull align 8 dereferenceable(32) ptr @_ZNSt7__cxx1112basic_stringIcSt11char_traitsIcESaIcEE6appendEmc(ptr noundef nonnull align 8 dereferenceable(32) %15, i64 noundef %19, i8 noundef signext 32)
  br label %21

21:                                               ; preds = %13, %8
  ret void
}

; Function Attrs: mustprogress uwtable
define dso_local void @_ZN5vcpkg4Json23stringify_object_memberB5cxx11ENS_13StringLiteralERKNS0_5ArrayENS0_9JsonStyleEi(ptr dead_on_unwind noalias writable sret(%"class.std::__cxx11::basic_string") align 8 %0, ptr %1, i64 %2, ptr noundef nonnull align 8 dereferenceable(24) %3, i32 %4, i64 %5, i32 noundef %6) #4 personality ptr @__gxx_personality_v0 {
  %8 = alloca ptr, align 8
  %9 = alloca %"struct.vcpkg::StringLiteral", align 8
  %10 = alloca %"struct.vcpkg::Json::JsonStyle", align 8
  %11 = alloca ptr, align 8
  %12 = alloca i32, align 4
  %13 = alloca i1, align 1
  %14 = alloca %"struct.vcpkg::Json::(anonymous namespace)::Stringifier", align 8
  %15 = alloca ptr, align 8
  %16 = alloca i32, align 4
  %17 = alloca %"struct.vcpkg::StringView", align 8
  store ptr %0, ptr %8, align 8
  %18 = getelementptr inbounds { ptr, i64 }, ptr %9, i32 0, i32 0
  store ptr %1, ptr %18, align 8
  %19 = getelementptr inbounds { ptr, i64 }, ptr %9, i32 0, i32 1
  store i64 %2, ptr %19, align 8
  %20 = getelementptr inbounds { i32, i64 }, ptr %10, i32 0, i32 0
  store i32 %4, ptr %20, align 8
  %21 = getelementptr inbounds { i32, i64 }, ptr %10, i32 0, i32 1
  store i64 %5, ptr %21, align 8
  store ptr %3, ptr %11, align 8
  store i32 %6, ptr %12, align 4
  store i1 false, ptr %13, align 1
  call void @_ZNSt7__cxx1112basic_stringIcSt11char_traitsIcESaIcEEC1Ev(ptr noundef nonnull align 8 dereferenceable(32) %0) #9
  %22 = getelementptr inbounds %"struct.vcpkg::Json::(anonymous namespace)::Stringifier", ptr %14, i32 0, i32 0
  call void @llvm.memcpy.p0.p0.i64(ptr align 8 %22, ptr align 8 %10, i64 16, i1 false)
  %23 = getelementptr inbounds %"struct.vcpkg::Json::(anonymous namespace)::Stringifier", ptr %14, i32 0, i32 1
  store ptr %0, ptr %23, align 8
  %24 = load i32, ptr %12, align 4
  %25 = sext i32 %24 to i64
  invoke void @_ZNK5vcpkg4Json12_GLOBAL__N_111Stringifier13append_indentEm(ptr noundef nonnull align 8 dereferenceable(24) %14, i64 noundef %25)
          to label %26 unwind label %37

26:                                               ; preds = %7
  call void @llvm.memcpy.p0.p0.i64(ptr align 8 %17, ptr align 8 %9, i64 16, i1 false)
  %27 = load ptr, ptr %11, align 8
  %28 = load i32, ptr %12, align 4
  %29 = sext i32 %28 to i64
  %30 = getelementptr inbounds { ptr, i64 }, ptr %17, i32 0, i32 0
  %31 = load ptr, ptr %30, align 8
  %32 = getelementptr inbounds { ptr, i64 }, ptr %17, i32 0, i32 1
  %33 = load i64, ptr %32, align 8
  invoke void @_ZN5vcpkg4Json12_GLOBAL__N_111Stringifier23stringify_object_memberENS_10StringViewERKNS0_5ArrayEm(ptr noundef nonnull align 8 dereferenceable(24) %14, ptr %31, i64 %33, ptr noundef nonnull align 8 dereferenceable(24) %27, i64 noundef %29)
          to label %34 unwind label %37

34:                                               ; preds = %26
  invoke void @_ZNSt7__cxx1112basic_stringIcSt11char_traitsIcESaIcEE9push_backEc(ptr noundef nonnull align 8 dereferenceable(32) %0, i8 noundef signext 10)
          to label %35 unwind label %37

35:                                               ; preds = %34
  store i1 true, ptr %13, align 1
  %36 = load i1, ptr %13, align 1
  br i1 %36, label %42, label %41

37:                                               ; preds = %34, %26, %7
  %38 = landingpad { ptr, i32 }
          cleanup
  %39 = extractvalue { ptr, i32 } %38, 0
  store ptr %39, ptr %15, align 8
  %40 = extractvalue { ptr, i32 } %38, 1
  store i32 %40, ptr %16, align 4
  call void @_ZNSt7__cxx1112basic_stringIcSt11char_traitsIcESaIcEED1Ev(ptr noundef nonnull align 8 dereferenceable(32) %0) #9
  br label %43

41:                                               ; preds = %35
  call void @_ZNSt7__cxx1112basic_stringIcSt11char_traitsIcESaIcEED1Ev(ptr noundef nonnull align 8 dereferenceable(32) %0) #9
  br label %42

42:                                               ; preds = %41, %35
  ret void

43:                                               ; preds = %37
  %44 = load ptr, ptr %15, align 8
  %45 = load i32, ptr %16, align 4
  %46 = insertvalue { ptr, i32 } poison, ptr %44, 0
  %47 = insertvalue { ptr, i32 } %46, i32 %45, 1
  resume { ptr, i32 } %47
}