; Function Attrs: mustprogress uwtable
define dso_local void @_ZN5vcpkg4Json23stringify_object_memberB5cxx11ENS_13StringLiteralERKNS0_5ArrayENS0_9JsonStyleEi(ptr dead_on_unwind noalias nonnull writable sret(%"class.std::__cxx11::basic_string") align 8 %0, ptr %1, i64 %2, ptr nocapture noundef nonnull readonly align 8 dereferenceable(24) %3, i32 %4, i64 %5, i32 noundef %6) local_unnamed_addr #8 personality ptr @__gxx_personality_v0 {
  %8 = alloca %"struct.vcpkg::LineInfo", align 8
  %9 = alloca %"struct.vcpkg::Json::(anonymous namespace)::Stringifier", align 8
  tail call void @_ZNSt7__cxx1112basic_stringIcSt11char_traitsIcESaIcEEC1Ev(ptr noundef nonnull align 8 dereferenceable(32) %0) #26
  store i32 %4, ptr %9, align 8
  %.sroa.27.0..sroa_idx = getelementptr inbounds i8, ptr %9, i64 8
  store i64 %5, ptr %.sroa.27.0..sroa_idx, align 8
  %10 = getelementptr inbounds i8, ptr %9, i64 16
  store ptr %0, ptr %10, align 8
  %11 = sext i32 %6 to i64
  %12 = icmp eq i64 %5, -1
  br i1 %12, label %_ZNK5vcpkg4Json9JsonStyle6spacesEv.exit.i.invoke, label %13

13:                                               ; preds = %7
  call void @llvm.lifetime.start.p0(i64 16, ptr nonnull %8)
  store i32 50, ptr %8, align 8
  %14 = getelementptr inbounds i8, ptr %8, i64 8
  store ptr @.str.67, ptr %14, align 8
  invoke void @_ZN5vcpkg6Checks10check_exitERKNS_8LineInfoEb(ptr noundef nonnull align 8 dereferenceable(16) %8, i1 noundef zeroext true)
          to label %_ZNK5vcpkg4Json9JsonStyle6spacesEv.exit.i unwind label %15

15:                                               ; preds = %13
  %16 = landingpad { ptr, i32 }
          catch ptr null
  %17 = extractvalue { ptr, i32 } %16, 0
  call void @__clang_call_terminate(ptr %17) #25
  unreachable

_ZNK5vcpkg4Json9JsonStyle6spacesEv.exit.i:        ; preds = %13
  call void @llvm.lifetime.end.p0(i64 16, ptr nonnull %8)
  %18 = mul i64 %11, %5
  br label %_ZNK5vcpkg4Json9JsonStyle6spacesEv.exit.i.invoke

_ZNK5vcpkg4Json9JsonStyle6spacesEv.exit.i.invoke: ; preds = %7, %_ZNK5vcpkg4Json9JsonStyle6spacesEv.exit.i
  %19 = phi i64 [ %18, %_ZNK5vcpkg4Json9JsonStyle6spacesEv.exit.i ], [ %11, %7 ]
  %20 = phi i8 [ 32, %_ZNK5vcpkg4Json9JsonStyle6spacesEv.exit.i ], [ 9, %7 ]
  %21 = invoke noundef nonnull align 8 dereferenceable(32) ptr @_ZNSt7__cxx1112basic_stringIcSt11char_traitsIcESaIcEE6appendEmc(ptr noundef nonnull align 8 dereferenceable(32) %0, i64 noundef %19, i8 noundef signext %20)
          to label %_ZNK5vcpkg4Json12_GLOBAL__N_111Stringifier13append_indentEm.exit unwind label %23

_ZNK5vcpkg4Json12_GLOBAL__N_111Stringifier13append_indentEm.exit: ; preds = %_ZNK5vcpkg4Json9JsonStyle6spacesEv.exit.i.invoke
  invoke fastcc void @_ZN5vcpkg4Json12_GLOBAL__N_111Stringifier25append_quoted_json_stringENS_10StringViewE(ptr noundef nonnull align 8 dereferenceable(24) %9, ptr %1, i64 %2)
          to label %.noexc11 unwind label %23

.noexc11:                                         ; preds = %_ZNK5vcpkg4Json12_GLOBAL__N_111Stringifier13append_indentEm.exit
  %22 = invoke noundef nonnull align 8 dereferenceable(32) ptr @_ZNSt7__cxx1112basic_stringIcSt11char_traitsIcESaIcEE6appendEPKc(ptr noundef nonnull align 8 dereferenceable(32) %0, ptr noundef nonnull @.str.14)
          to label %.noexc12 unwind label %23

.noexc12:                                         ; preds = %.noexc11
  invoke fastcc void @_ZN5vcpkg4Json12_GLOBAL__N_111Stringifier15stringify_arrayERKNS0_5ArrayEm(ptr noundef nonnull align 8 dereferenceable(24) %9, ptr noundef nonnull align 8 dereferenceable(24) %3, i64 noundef %11)
          to label %_ZN5vcpkg4Json12_GLOBAL__N_111Stringifier23stringify_object_memberENS_10StringViewERKNS0_5ArrayEm.exit unwind label %23

_ZN5vcpkg4Json12_GLOBAL__N_111Stringifier23stringify_object_memberENS_10StringViewERKNS0_5ArrayEm.exit: ; preds = %.noexc12
  invoke void @_ZNSt7__cxx1112basic_stringIcSt11char_traitsIcESaIcEE9push_backEc(ptr noundef nonnull align 8 dereferenceable(32) %0, i8 noundef signext 10)
          to label %25 unwind label %23

23:                                               ; preds = %_ZNK5vcpkg4Json9JsonStyle6spacesEv.exit.i.invoke, %.noexc12, %.noexc11, %_ZNK5vcpkg4Json12_GLOBAL__N_111Stringifier13append_indentEm.exit, %_ZN5vcpkg4Json12_GLOBAL__N_111Stringifier23stringify_object_memberENS_10StringViewERKNS0_5ArrayEm.exit
  %24 = landingpad { ptr, i32 }
          cleanup
  call void @_ZNSt7__cxx1112basic_stringIcSt11char_traitsIcESaIcEED1Ev(ptr noundef nonnull align 8 dereferenceable(32) %0) #26
  resume { ptr, i32 } %24

25:                                               ; preds = %_ZN5vcpkg4Json12_GLOBAL__N_111Stringifier23stringify_object_memberENS_10StringViewERKNS0_5ArrayEm.exit
  ret void
}